target datalayout = "e-m:e-p270:32:32-p271:32:32-p272:64:64-i64:64-i128:128-f80:128-n8:16:32:64-S128"
target triple = "x86_64-pc-linux-gnu"

@.str.26 = private unnamed_addr constant [2 x i8] c"\0A\00", align 1
@.str.32 = private unnamed_addr constant [2 x i8] c"w\00", align 1
@.str.69 = private unnamed_addr constant [9 x i8] c"rand.txt\00", align 1
@.str.70 = private unnamed_addr constant [13 x i8] c"%10d : %10d \00", align 1
@Aig_ManRandom.m_z = internal thread_local global i32 -578006775, align 4
@Aig_ManRandom.m_w = internal thread_local global i32 -2120863760, align 4

; Function Attrs: nounwind uwtable
define i32 @Aig_ManRandom(i32 noundef %0) #0 {
  %2 = alloca i32, align 4
  store i32 %0, ptr %2, align 4, !tbaa !22
  %3 = load i32, ptr %2, align 4, !tbaa !22
  %4 = icmp ne i32 %3, 0
  br i1 %4, label %5, label %8

5:                                                ; preds = %1
  %6 = call align 4 ptr @llvm.threadlocal.address.p0(ptr align 4 @Aig_ManRandom.m_z)
  store i32 -578006775, ptr %6, align 4, !tbaa !22
  %7 = call align 4 ptr @llvm.threadlocal.address.p0(ptr align 4 @Aig_ManRandom.m_w)
  store i32 -2120863760, ptr %7, align 4, !tbaa !22
  br label %8

8:                                                ; preds = %5, %1
  %9 = call align 4 ptr @llvm.threadlocal.address.p0(ptr align 4 @Aig_ManRandom.m_z)
  %10 = load i32, ptr %9, align 4, !tbaa !22
  %11 = and i32 %10, 65535
  %12 = mul i32 36969, %11
  %13 = call align 4 ptr @llvm.threadlocal.address.p0(ptr align 4 @Aig_ManRandom.m_z)
  %14 = load i32, ptr %13, align 4, !tbaa !22
  %15 = lshr i32 %14, 16
  %16 = add i32 %12, %15
  %17 = call align 4 ptr @llvm.threadlocal.address.p0(ptr align 4 @Aig_ManRandom.m_z)
  store i32 %16, ptr %17, align 4, !tbaa !22
  %18 = call align 4 ptr @llvm.threadlocal.address.p0(ptr align 4 @Aig_ManRandom.m_w)
  %19 = load i32, ptr %18, align 4, !tbaa !22
  %20 = and i32 %19, 65535
  %21 = mul i32 18000, %20
  %22 = call align 4 ptr @llvm.threadlocal.address.p0(ptr align 4 @Aig_ManRandom.m_w)
  %23 = load i32, ptr %22, align 4, !tbaa !22
  %24 = lshr i32 %23, 16
  %25 = add i32 %21, %24
  %26 = call align 4 ptr @llvm.threadlocal.address.p0(ptr align 4 @Aig_ManRandom.m_w)
  store i32 %25, ptr %26, align 4, !tbaa !22
  %27 = call align 4 ptr @llvm.threadlocal.address.p0(ptr align 4 @Aig_ManRandom.m_z)
  %28 = load i32, ptr %27, align 4, !tbaa !22
  %29 = shl i32 %28, 16
  %30 = call align 4 ptr @llvm.threadlocal.address.p0(ptr align 4 @Aig_ManRandom.m_w)
  %31 = load i32, ptr %30, align 4, !tbaa !22
  %32 = add i32 %29, %31
  ret i32 %32
}

; Function Attrs: nounwind uwtable
define void @Aig_ManRandomTest1() #0 {
  %1 = alloca ptr, align 8
  %2 = alloca i32, align 4
  %3 = alloca i32, align 4
  call void @llvm.lifetime.start.p0(i64 8, ptr %1) #10
  call void @llvm.lifetime.start.p0(i64 4, ptr %2) #10
  call void @llvm.lifetime.start.p0(i64 4, ptr %3) #10
  store i32 0, ptr %3, align 4, !tbaa !22
  %4 = call noalias ptr @fopen(ptr noundef @.str.69, ptr noundef @.str.32)
  store ptr %4, ptr %1, align 8, !tbaa !48
  br label %5

5:                                                ; preds = %19, %0
  %6 = call i32 @Aig_ManRandom(i32 noundef 0)
  store i32 %6, ptr %2, align 4, !tbaa !22
  %7 = load i32, ptr %3, align 4, !tbaa !22
  %8 = add i32 %7, 1
  store i32 %8, ptr %3, align 4, !tbaa !22
  %9 = load ptr, ptr %1, align 8, !tbaa !48
  %10 = load i32, ptr %3, align 4, !tbaa !22
  %11 = load i32, ptr %2, align 4, !tbaa !22
  %12 = call i32 (ptr, ptr, ...) @fprintf(ptr noundef %9, ptr noundef @.str.70, i32 noundef %10, i32 noundef %11) #10
  %13 = load ptr, ptr %1, align 8, !tbaa !48
  %14 = call i32 (ptr, ptr, ...) @fprintf(ptr noundef %13, ptr noundef @.str.26) #10
  %15 = load i32, ptr %3, align 4, !tbaa !22
  %16 = icmp eq i32 %15, 20000
  br i1 %16, label %17, label %18

17:                                               ; preds = %5
  br label %22

18:                                               ; preds = %5
  br label %19

19:                                               ; preds = %18
  %20 = load i32, ptr %2, align 4, !tbaa !22
  %21 = icmp ne i32 %20, 1
  br i1 %21, label %5, label %22, !llvm.loop !99

22:                                               ; preds = %19, %17
  %23 = load ptr, ptr %1, align 8, !tbaa !48
  %24 = call i32 @fclose(ptr noundef %23)
  call void @llvm.lifetime.end.p0(i64 4, ptr %3) #10
  call void @llvm.lifetime.end.p0(i64 4, ptr %2) #10
  call void @llvm.lifetime.end.p0(i64 8, ptr %1) #10
  ret void
}