; Function Attrs: nofree nounwind uwtable
define void @Aig_ManRandomTest1() local_unnamed_addr #13 {
  %1 = tail call noalias ptr @fopen(ptr noundef nonnull @.str.69, ptr noundef nonnull @.str.32)
  %.pre.i = tail call align 4 ptr @llvm.threadlocal.address.p0(ptr align 4 @Aig_ManRandom.m_z)
  %.pre1.i = tail call align 4 ptr @llvm.threadlocal.address.p0(ptr align 4 @Aig_ManRandom.m_w)
  br label %2

2:                                                ; preds = %2, %0
  %.0 = phi i32 [ 0, %0 ], [ %15, %2 ]
  %3 = load i32, ptr %.pre.i, align 4, !tbaa !30
  %4 = and i32 %3, 65535
  %5 = mul nuw i32 %4, 36969
  %6 = lshr i32 %3, 16
  %7 = add nuw i32 %5, %6
  store i32 %7, ptr %.pre.i, align 4, !tbaa !30
  %8 = load i32, ptr %.pre1.i, align 4, !tbaa !30
  %9 = and i32 %8, 65535
  %10 = mul nuw nsw i32 %9, 18000
  %11 = lshr i32 %8, 16
  %12 = add nuw nsw i32 %10, %11
  store i32 %12, ptr %.pre1.i, align 4, !tbaa !30
  %13 = shl i32 %7, 16
  %14 = add i32 %12, %13
  %15 = add nuw nsw i32 %.0, 1
  %16 = tail call i32 (ptr, ptr, ...) @fprintf(ptr noundef %1, ptr noundef nonnull @.str.70, i32 noundef %15, i32 noundef %14) #25
  %fputc = tail call i32 @fputc(i32 10, ptr %1)
  %17 = icmp ne i32 %15, 20000
  %18 = icmp ne i32 %14, 1
  %or.cond = and i1 %17, %18
  br i1 %or.cond, label %2, label %19, !llvm.loop !92

19:                                               ; preds = %2
  %20 = tail call i32 @fclose(ptr noundef %1)
  ret void
}